target datalayout = "e-m:e-p270:32:32-p271:32:32-p272:64:64-i64:64-i128:128-f80:128-n8:16:32:64-S128"
target triple = "x86_64-unknown-linux-gnu"

%"class.node::quic::StatelessResetToken" = type { %"class.node::MemoryRetainer", ptr, [16 x i8] }
%"class.node::MemoryRetainer" = type { ptr }

; Function Attrs: mustprogress nounwind uwtable
define dso_local noundef zeroext i1 @_ZNK4node4quic19StatelessResetTokeneqERKS1_(ptr noundef nonnull align 8 dereferenceable(32) %this, ptr noundef nonnull align 8 dereferenceable(32) %other) #4 align 2 {
entry:
  %retval = alloca i1, align 1
  %this.addr = alloca ptr, align 8
  %other.addr = alloca ptr, align 8
  store ptr %this, ptr %this.addr, align 8
  store ptr %other, ptr %other.addr, align 8
  %this1 = load ptr, ptr %this.addr, align 8
  %ptr_ = getelementptr inbounds %"class.node::quic::StatelessResetToken", ptr %this1, i32 0, i32 1
  %0 = load ptr, ptr %ptr_, align 8
  %1 = load ptr, ptr %other.addr, align 8
  %ptr_2 = getelementptr inbounds %"class.node::quic::StatelessResetToken", ptr %1, i32 0, i32 1
  %2 = load ptr, ptr %ptr_2, align 8
  %cmp = icmp eq ptr %0, %2
  br i1 %cmp, label %if.then, label %if.end

if.then:                                          ; preds = %entry
  store i1 true, ptr %retval, align 1
  br label %return

if.end:                                           ; preds = %entry
  %ptr_3 = getelementptr inbounds %"class.node::quic::StatelessResetToken", ptr %this1, i32 0, i32 1
  %3 = load ptr, ptr %ptr_3, align 8
  %cmp4 = icmp eq ptr %3, null
  br i1 %cmp4, label %land.lhs.true, label %lor.lhs.false

land.lhs.true:                                    ; preds = %if.end
  %4 = load ptr, ptr %other.addr, align 8
  %ptr_5 = getelementptr inbounds %"class.node::quic::StatelessResetToken", ptr %4, i32 0, i32 1
  %5 = load ptr, ptr %ptr_5, align 8
  %cmp6 = icmp ne ptr %5, null
  br i1 %cmp6, label %if.then12, label %lor.lhs.false

lor.lhs.false:                                    ; preds = %land.lhs.true, %if.end
  %ptr_7 = getelementptr inbounds %"class.node::quic::StatelessResetToken", ptr %this1, i32 0, i32 1
  %6 = load ptr, ptr %ptr_7, align 8
  %cmp8 = icmp ne ptr %6, null
  br i1 %cmp8, label %land.lhs.true9, label %if.end13

land.lhs.true9:                                   ; preds = %lor.lhs.false
  %7 = load ptr, ptr %other.addr, align 8
  %ptr_10 = getelementptr inbounds %"class.node::quic::StatelessResetToken", ptr %7, i32 0, i32 1
  %8 = load ptr, ptr %ptr_10, align 8
  %cmp11 = icmp eq ptr %8, null
  br i1 %cmp11, label %if.then12, label %if.end13

if.then12:                                        ; preds = %land.lhs.true9, %land.lhs.true
  store i1 false, ptr %retval, align 1
  br label %return

if.end13:                                         ; preds = %land.lhs.true9, %lor.lhs.false
  %ptr_14 = getelementptr inbounds %"class.node::quic::StatelessResetToken", ptr %this1, i32 0, i32 1
  %9 = load ptr, ptr %ptr_14, align 8
  %10 = load ptr, ptr %other.addr, align 8
  %ptr_15 = getelementptr inbounds %"class.node::quic::StatelessResetToken", ptr %10, i32 0, i32 1
  %11 = load ptr, ptr %ptr_15, align 8
  %call = call i32 @memcmp(ptr noundef %9, ptr noundef %11, i64 noundef 16) #12
  %cmp16 = icmp eq i32 %call, 0
  store i1 %cmp16, ptr %retval, align 1
  br label %return

return:                                           ; preds = %if.end13, %if.then12, %if.then
  %12 = load i1, ptr %retval, align 1
  ret i1 %12
}

; Function Attrs: mustprogress nounwind uwtable
define dso_local noundef zeroext i1 @_ZNK4node4quic19StatelessResetTokenneERKS1_(ptr noundef nonnull align 8 dereferenceable(32) %this, ptr noundef nonnull align 8 dereferenceable(32) %other) #4 align 2 {
entry:
  %this.addr = alloca ptr, align 8
  %other.addr = alloca ptr, align 8
  store ptr %this, ptr %this.addr, align 8
  store ptr %other, ptr %other.addr, align 8
  %this1 = load ptr, ptr %this.addr, align 8
  %0 = load ptr, ptr %other.addr, align 8
  %call = call noundef zeroext i1 @_ZNK4node4quic19StatelessResetTokeneqERKS1_(ptr noundef nonnull align 8 dereferenceable(32) %this1, ptr noundef nonnull align 8 dereferenceable(32) %0)
  %lnot = xor i1 %call, true
  ret i1 %lnot
}