; Function Attrs: mustprogress nofree nounwind willreturn memory(read, inaccessiblemem: none) uwtable
define dso_local noundef zeroext i1 @_ZNK4node4quic19StatelessResetTokenneERKS1_(ptr nocapture noundef nonnull readonly align 8 dereferenceable(32) %this, ptr nocapture noundef nonnull readonly align 8 dereferenceable(32) %other) local_unnamed_addr #11 align 2 {
entry:
  %ptr_.i = getelementptr inbounds i8, ptr %this, i64 8
  %0 = load ptr, ptr %ptr_.i, align 8
  %ptr_2.i = getelementptr inbounds i8, ptr %other, i64 8
  %1 = load ptr, ptr %ptr_2.i, align 8
  %cmp.i = icmp eq ptr %0, %1
  br i1 %cmp.i, label %_ZNK4node4quic19StatelessResetTokeneqERKS1_.exit, label %if.end.i

if.end.i:                                         ; preds = %entry
  %cmp4.i = icmp ne ptr %0, null
  %2 = icmp ne ptr %1, null
  %or.cond6.i = xor i1 %cmp4.i, %2
  br i1 %or.cond6.i, label %_ZNK4node4quic19StatelessResetTokeneqERKS1_.exit, label %if.end13.i

if.end13.i:                                       ; preds = %if.end.i
  %bcmp.i = tail call i32 @bcmp(ptr noundef nonnull dereferenceable(16) %0, ptr noundef nonnull dereferenceable(16) %1, i64 16)
  %cmp16.i = icmp ne i32 %bcmp.i, 0
  br label %_ZNK4node4quic19StatelessResetTokeneqERKS1_.exit

_ZNK4node4quic19StatelessResetTokeneqERKS1_.exit: ; preds = %entry, %if.end.i, %if.end13.i
  %retval.0.i = phi i1 [ %cmp16.i, %if.end13.i ], [ false, %entry ], [ true, %if.end.i ]
  ret i1 %retval.0.i
}